; Function Attrs: mustprogress uwtable
define dso_local void @_ZN8V3Config19addCoverageBlockOffERKNSt7__cxx1112basic_stringIcSt11char_traitsIcESaIcEEEi(ptr noundef nonnull align 8 dereferenceable(32) %0, i32 noundef %1) local_unnamed_addr #3 align 2 {
  %3 = alloca i32, align 4
  %4 = load atomic i8, ptr @_ZGVZN16V3ConfigResolver1sEvE11s_singleton acquire, align 8
  %5 = icmp eq i8 %4, 0
  br i1 %5, label %6, label %_ZN12V3ConfigFile16addLineAttributeEi11VPragmaType.exit, !prof !5

6:                                                ; preds = %2
  %7 = tail call i32 @__cxa_guard_acquire(ptr nonnull @_ZGVZN16V3ConfigResolver1sEvE11s_singleton) #18
  %.not.i = icmp eq i32 %7, 0
  br i1 %.not.i, label %_ZN12V3ConfigFile16addLineAttributeEi11VPragmaType.exit, label %8

8:                                                ; preds = %6
  tail call void @_ZN16V3ConfigResolverC2Ev(ptr noundef nonnull align 8 dereferenceable(408) @_ZZN16V3ConfigResolver1sEvE11s_singleton) #18
  %9 = tail call i32 @__cxa_atexit(ptr nonnull @_ZN16V3ConfigResolverD2Ev, ptr nonnull @_ZZN16V3ConfigResolver1sEvE11s_singleton, ptr nonnull @__dso_handle) #18
  tail call void @__cxa_guard_release(ptr nonnull @_ZGVZN16V3ConfigResolver1sEvE11s_singleton) #18
  br label %_ZN12V3ConfigFile16addLineAttributeEi11VPragmaType.exit

_ZN12V3ConfigFile16addLineAttributeEi11VPragmaType.exit: ; preds = %8, %6, %2
  %10 = tail call noundef nonnull align 8 dereferenceable(136) ptr @_ZN24V3ConfigWildcardResolverI12V3ConfigFileE2atERKNSt7__cxx1112basic_stringIcSt11char_traitsIcESaIcEEE(ptr noundef nonnull align 8 dereferenceable(136) getelementptr inbounds (%class.V3ConfigResolver, ptr @_ZZN16V3ConfigResolver1sEvE11s_singleton, i64 0, i32 1, i32 0, i32 0, i32 0, i32 0, i32 0, i32 0), ptr noundef nonnull align 8 dereferenceable(32) %0)
  call void @llvm.lifetime.start.p0(i64 4, ptr nonnull %3)
  store i32 %1, ptr %3, align 4
  %11 = call noundef nonnull align 8 dereferenceable(8) ptr @_ZNSt3mapIiSt6bitsetILm12EESt4lessIiESaISt4pairIKiS1_EEEixERS5_(ptr noundef nonnull align 8 dereferenceable(48) %10, ptr noundef nonnull align 4 dereferenceable(4) %3)
  %12 = load i64, ptr %11, align 8
  %13 = or i64 %12, 2
  store i64 %13, ptr %11, align 8
  call void @llvm.lifetime.end.p0(i64 4, ptr nonnull %3)
  ret void
}